; Function Attrs: mustprogress nofree nounwind willreturn memory(read, inaccessiblemem: none) uwtable
define noundef zeroext i1 @_ZNK6icu_778CollatoreqERKS0_(ptr noundef nonnull readonly align 8 captures(none) dereferenceable(8) %0, ptr noundef nonnull readonly align 8 captures(none) dereferenceable(8) %1) unnamed_addr #10 align 2 {
  %3 = load ptr, ptr %0, align 8, !tbaa !3
  %4 = getelementptr inbounds i8, ptr %3, i64 -8
  %5 = load ptr, ptr %4, align 8
  %6 = load ptr, ptr %1, align 8, !tbaa !3
  %7 = getelementptr inbounds i8, ptr %6, i64 -8
  %8 = load ptr, ptr %7, align 8
  %9 = getelementptr inbounds nuw i8, ptr %5, i64 8
  %10 = load ptr, ptr %9, align 8, !tbaa !44
  %11 = getelementptr inbounds nuw i8, ptr %8, i64 8
  %12 = load ptr, ptr %11, align 8, !tbaa !44
  %13 = icmp eq ptr %10, %12
  br i1 %13, label %_ZNKSt9type_infoeqERKS_.exit, label %14

14:                                               ; preds = %2
  %15 = load i8, ptr %10, align 1, !tbaa !29
  %.not.i = icmp eq i8 %15, 42
  br i1 %.not.i, label %_ZNKSt9type_infoeqERKS_.exit, label %16

16:                                               ; preds = %14
  %17 = load i8, ptr %12, align 1, !tbaa !29
  %18 = icmp eq i8 %17, 42
  %.idx.i.i = zext i1 %18 to i64
  %19 = getelementptr inbounds nuw i8, ptr %12, i64 %.idx.i.i
  %20 = tail call i32 @strcmp(ptr noundef nonnull dereferenceable(1) %10, ptr noundef nonnull dereferenceable(1) %19) #16
  %21 = icmp eq i32 %20, 0
  br label %_ZNKSt9type_infoeqERKS_.exit

_ZNKSt9type_infoeqERKS_.exit:                     ; preds = %2, %14, %16
  %.0.i = phi i1 [ true, %2 ], [ false, %14 ], [ %21, %16 ]
  ret i1 %.0.i
}